target datalayout = "e-m:e-p270:32:32-p271:32:32-p272:64:64-i64:64-i128:128-f80:128-n8:16:32:64-S128"
target triple = "x86_64-unknown-linux-gnu"

%"class.llvh::FoldingSetNodeIDRef" = type { ptr, i64 }
%"class.llvh::FoldingSetNodeID" = type { %"class.llvh::SmallVector" }
%"class.llvh::SmallVector" = type { %"class.llvh::SmallVectorImpl", %"struct.llvh::SmallVectorStorage" }
%"class.llvh::SmallVectorImpl" = type { %"class.llvh::SmallVectorTemplateBase" }
%"class.llvh::SmallVectorTemplateBase" = type { %"class.llvh::SmallVectorTemplateCommon" }
%"class.llvh::SmallVectorTemplateCommon" = type { %"class.llvh::SmallVectorBase" }
%"class.llvh::SmallVectorBase" = type { ptr, i32, i32 }
%"struct.llvh::SmallVectorStorage" = type { [32 x %"struct.llvh::AlignedCharArrayUnion"] }
%"struct.llvh::AlignedCharArrayUnion" = type { %"struct.llvh::AlignedCharArray" }
%"struct.llvh::AlignedCharArray" = type { [4 x i8] }

; Function Attrs: mustprogress nounwind uwtable
define hidden noundef zeroext i1 @_ZNK4llvh19FoldingSetNodeIDRefeqES0_(ptr noundef nonnull align 8 dereferenceable(16) %this, ptr %RHS.coerce0, i64 %RHS.coerce1) #0 align 2 {
entry:
  %retval = alloca i1, align 1
  %RHS = alloca %"class.llvh::FoldingSetNodeIDRef", align 8
  %this.addr = alloca ptr, align 8
  %0 = getelementptr inbounds { ptr, i64 }, ptr %RHS, i32 0, i32 0
  store ptr %RHS.coerce0, ptr %0, align 8
  %1 = getelementptr inbounds { ptr, i64 }, ptr %RHS, i32 0, i32 1
  store i64 %RHS.coerce1, ptr %1, align 8
  store ptr %this, ptr %this.addr, align 8
  %this1 = load ptr, ptr %this.addr, align 8
  %Size = getelementptr inbounds %"class.llvh::FoldingSetNodeIDRef", ptr %this1, i32 0, i32 1
  %2 = load i64, ptr %Size, align 8
  %Size2 = getelementptr inbounds %"class.llvh::FoldingSetNodeIDRef", ptr %RHS, i32 0, i32 1
  %3 = load i64, ptr %Size2, align 8
  %cmp = icmp ne i64 %2, %3
  br i1 %cmp, label %if.then, label %if.end

if.then:                                          ; preds = %entry
  store i1 false, ptr %retval, align 1
  br label %return

if.end:                                           ; preds = %entry
  %Data = getelementptr inbounds %"class.llvh::FoldingSetNodeIDRef", ptr %this1, i32 0, i32 0
  %4 = load ptr, ptr %Data, align 8
  %Data3 = getelementptr inbounds %"class.llvh::FoldingSetNodeIDRef", ptr %RHS, i32 0, i32 0
  %5 = load ptr, ptr %Data3, align 8
  %Size4 = getelementptr inbounds %"class.llvh::FoldingSetNodeIDRef", ptr %this1, i32 0, i32 1
  %6 = load i64, ptr %Size4, align 8
  %mul = mul i64 %6, 4
  %call = call i32 @memcmp(ptr noundef %4, ptr noundef %5, i64 noundef %mul) #10
  %cmp5 = icmp eq i32 %call, 0
  store i1 %cmp5, ptr %retval, align 1
  br label %return

return:                                           ; preds = %if.end, %if.then
  %7 = load i1, ptr %retval, align 1
  ret i1 %7
}

; Function Attrs: mustprogress nounwind uwtable
define hidden noundef zeroext i1 @_ZNK4llvh16FoldingSetNodeIDeqENS_19FoldingSetNodeIDRefE(ptr noundef nonnull align 8 dereferenceable(144) %this, ptr %RHS.coerce0, i64 %RHS.coerce1) #0 align 2 {
entry:
  %RHS = alloca %"class.llvh::FoldingSetNodeIDRef", align 8
  %this.addr = alloca ptr, align 8
  %ref.tmp = alloca %"class.llvh::FoldingSetNodeIDRef", align 8
  %agg.tmp = alloca %"class.llvh::FoldingSetNodeIDRef", align 8
  %0 = getelementptr inbounds { ptr, i64 }, ptr %RHS, i32 0, i32 0
  store ptr %RHS.coerce0, ptr %0, align 8
  %1 = getelementptr inbounds { ptr, i64 }, ptr %RHS, i32 0, i32 1
  store i64 %RHS.coerce1, ptr %1, align 8
  store ptr %this, ptr %this.addr, align 8
  %this1 = load ptr, ptr %this.addr, align 8
  %Bits = getelementptr inbounds %"class.llvh::FoldingSetNodeID", ptr %this1, i32 0, i32 0
  %call = call noundef ptr @_ZNK4llvh25SmallVectorTemplateCommonIjvE4dataEv(ptr noundef nonnull align 8 dereferenceable(16) %Bits)
  %Bits2 = getelementptr inbounds %"class.llvh::FoldingSetNodeID", ptr %this1, i32 0, i32 0
  %call3 = call noundef i64 @_ZNK4llvh15SmallVectorBase4sizeEv(ptr noundef nonnull align 8 dereferenceable(16) %Bits2)
  call void @_ZN4llvh19FoldingSetNodeIDRefC2EPKjm(ptr noundef nonnull align 8 dereferenceable(16) %ref.tmp, ptr noundef %call, i64 noundef %call3)
  call void @llvm.memcpy.p0.p0.i64(ptr align 8 %agg.tmp, ptr align 8 %RHS, i64 16, i1 false)
  %2 = getelementptr inbounds { ptr, i64 }, ptr %agg.tmp, i32 0, i32 0
  %3 = load ptr, ptr %2, align 8
  %4 = getelementptr inbounds { ptr, i64 }, ptr %agg.tmp, i32 0, i32 1
  %5 = load i64, ptr %4, align 8
  %call4 = call noundef zeroext i1 @_ZNK4llvh19FoldingSetNodeIDRefeqES0_(ptr noundef nonnull align 8 dereferenceable(16) %ref.tmp, ptr %3, i64 %5)
  ret i1 %call4
}

; Function Attrs: mustprogress nounwind uwtable
define linkonce_odr hidden void @_ZN4llvh19FoldingSetNodeIDRefC2EPKjm(ptr noundef nonnull align 8 dereferenceable(16) %this, ptr noundef %D, i64 noundef %S) unnamed_addr #0 comdat align 2 {
entry:
  %this.addr = alloca ptr, align 8
  %D.addr = alloca ptr, align 8
  %S.addr = alloca i64, align 8
  store ptr %this, ptr %this.addr, align 8
  store ptr %D, ptr %D.addr, align 8
  store i64 %S, ptr %S.addr, align 8
  %this1 = load ptr, ptr %this.addr, align 8
  %Data = getelementptr inbounds %"class.llvh::FoldingSetNodeIDRef", ptr %this1, i32 0, i32 0
  %0 = load ptr, ptr %D.addr, align 8
  store ptr %0, ptr %Data, align 8
  %Size = getelementptr inbounds %"class.llvh::FoldingSetNodeIDRef", ptr %this1, i32 0, i32 1
  %1 = load i64, ptr %S.addr, align 8
  store i64 %1, ptr %Size, align 8
  ret void
}

; Function Attrs: mustprogress nounwind uwtable
define linkonce_odr hidden noundef i64 @_ZNK4llvh15SmallVectorBase4sizeEv(ptr noundef nonnull align 8 dereferenceable(16) %this) #0 comdat align 2 {
entry:
  %this.addr = alloca ptr, align 8
  store ptr %this, ptr %this.addr, align 8
  %this1 = load ptr, ptr %this.addr, align 8
  %Size = getelementptr inbounds %"class.llvh::SmallVectorBase", ptr %this1, i32 0, i32 1
  %0 = load i32, ptr %Size, align 8
  %conv = zext i32 %0 to i64
  ret i64 %conv
}

; Function Attrs: mustprogress nounwind uwtable
define linkonce_odr hidden noundef ptr @_ZNK4llvh25SmallVectorTemplateCommonIjvE4dataEv(ptr noundef nonnull align 8 dereferenceable(16) %this) #0 comdat align 2 {
entry:
  %this.addr.i = alloca ptr, align 8
  %this.addr = alloca ptr, align 8
  store ptr %this, ptr %this.addr, align 8
  %this1 = load ptr, ptr %this.addr, align 8
  store ptr %this1, ptr %this.addr.i, align 8
  %this1.i = load ptr, ptr %this.addr.i, align 8
  %0 = load ptr, ptr %this1.i, align 8
  ret ptr %0
}

; Function Attrs: mustprogress nounwind uwtable
define hidden noundef zeroext i1 @_ZNK4llvh16FoldingSetNodeIDeqERKS0_(ptr noundef nonnull align 8 dereferenceable(144) %this, ptr noundef nonnull align 8 dereferenceable(144) %RHS) #0 align 2 {
entry:
  %this.addr = alloca ptr, align 8
  %RHS.addr = alloca ptr, align 8
  %agg.tmp = alloca %"class.llvh::FoldingSetNodeIDRef", align 8
  store ptr %this, ptr %this.addr, align 8
  store ptr %RHS, ptr %RHS.addr, align 8
  %this1 = load ptr, ptr %this.addr, align 8
  %0 = load ptr, ptr %RHS.addr, align 8
  %Bits = getelementptr inbounds %"class.llvh::FoldingSetNodeID", ptr %0, i32 0, i32 0
  %call = call noundef ptr @_ZNK4llvh25SmallVectorTemplateCommonIjvE4dataEv(ptr noundef nonnull align 8 dereferenceable(16) %Bits)
  %1 = load ptr, ptr %RHS.addr, align 8
  %Bits2 = getelementptr inbounds %"class.llvh::FoldingSetNodeID", ptr %1, i32 0, i32 0
  %call3 = call noundef i64 @_ZNK4llvh15SmallVectorBase4sizeEv(ptr noundef nonnull align 8 dereferenceable(16) %Bits2)
  call void @_ZN4llvh19FoldingSetNodeIDRefC2EPKjm(ptr noundef nonnull align 8 dereferenceable(16) %agg.tmp, ptr noundef %call, i64 noundef %call3)
  %2 = getelementptr inbounds { ptr, i64 }, ptr %agg.tmp, i32 0, i32 0
  %3 = load ptr, ptr %2, align 8
  %4 = getelementptr inbounds { ptr, i64 }, ptr %agg.tmp, i32 0, i32 1
  %5 = load i64, ptr %4, align 8
  %call4 = call noundef zeroext i1 @_ZNK4llvh16FoldingSetNodeIDeqENS_19FoldingSetNodeIDRefE(ptr noundef nonnull align 8 dereferenceable(144) %this1, ptr %3, i64 %5)
  ret i1 %call4
}